target datalayout = "e-m:e-p270:32:32-p271:32:32-p272:64:64-i64:64-i128:128-f80:128-n8:16:32:64-S128"
target triple = "x86_64-pc-linux-gnu"

%struct.RestrictInfo = type { i32, ptr, i8, i8, i8, i8, i8, i8, i32, i32, i32, ptr, ptr, ptr, ptr, ptr, ptr, ptr, i32, ptr, %struct.QualCost, double, double, ptr, ptr, ptr, ptr, ptr, ptr, i8, i32, double, double, double, double, i32, i32 }
%struct.QualCost = type { double, double }

; Function Attrs: nounwind uwtable
define dso_local zeroext i1 @join_clause_is_movable_into(ptr noundef %0, ptr noundef %1, ptr noundef %2) #0 {
  %4 = alloca i1, align 1
  %5 = alloca ptr, align 8
  %6 = alloca ptr, align 8
  %7 = alloca ptr, align 8
  store ptr %0, ptr %5, align 8
  store ptr %1, ptr %6, align 8
  store ptr %2, ptr %7, align 8
  %8 = load ptr, ptr %5, align 8
  %9 = getelementptr inbounds nuw %struct.RestrictInfo, ptr %8, i32 0, i32 11
  %10 = load ptr, ptr %9, align 8
  %11 = load ptr, ptr %7, align 8
  %12 = call zeroext i1 @bms_is_subset(ptr noundef %10, ptr noundef %11)
  br i1 %12, label %14, label %13

13:                                               ; preds = %3
  store i1 false, ptr %4, align 1
  br label %29

14:                                               ; preds = %3
  %15 = load ptr, ptr %6, align 8
  %16 = load ptr, ptr %5, align 8
  %17 = getelementptr inbounds nuw %struct.RestrictInfo, ptr %16, i32 0, i32 11
  %18 = load ptr, ptr %17, align 8
  %19 = call zeroext i1 @bms_overlap(ptr noundef %15, ptr noundef %18)
  br i1 %19, label %21, label %20

20:                                               ; preds = %14
  store i1 false, ptr %4, align 1
  br label %29

21:                                               ; preds = %14
  %22 = load ptr, ptr %6, align 8
  %23 = load ptr, ptr %5, align 8
  %24 = getelementptr inbounds nuw %struct.RestrictInfo, ptr %23, i32 0, i32 14
  %25 = load ptr, ptr %24, align 8
  %26 = call zeroext i1 @bms_overlap(ptr noundef %22, ptr noundef %25)
  br i1 %26, label %27, label %28

27:                                               ; preds = %21
  store i1 false, ptr %4, align 1
  br label %29

28:                                               ; preds = %21
  store i1 true, ptr %4, align 1
  br label %29

29:                                               ; preds = %28, %27, %20, %13
  %30 = load i1, ptr %4, align 1
  ret i1 %30
}