; Function Attrs: nounwind uwtable
define dso_local zeroext i1 @join_clause_is_movable_into(ptr noundef readonly captures(none) %0, ptr noundef %1, ptr noundef %2) local_unnamed_addr #0 {
  %4 = getelementptr inbounds nuw i8, ptr %0, i64 40
  %5 = load ptr, ptr %4, align 8
  %6 = tail call zeroext i1 @bms_is_subset(ptr noundef %5, ptr noundef %2) #5
  br i1 %6, label %7, label %14

7:                                                ; preds = %3
  %8 = load ptr, ptr %4, align 8
  %9 = tail call zeroext i1 @bms_overlap(ptr noundef %1, ptr noundef %8) #5
  br i1 %9, label %10, label %14

10:                                               ; preds = %7
  %11 = getelementptr inbounds nuw i8, ptr %0, i64 64
  %12 = load ptr, ptr %11, align 8
  %13 = tail call zeroext i1 @bms_overlap(ptr noundef %1, ptr noundef %12) #5
  %not. = xor i1 %13, true
  br label %14

14:                                               ; preds = %10, %7, %3
  %.0 = phi i1 [ false, %3 ], [ false, %7 ], [ %not., %10 ]
  ret i1 %.0
}